; ModuleID = '15/424.c'
source_filename = "15/424.c"
target datalayout = "e-m:e-p270:32:32-p271:32:32-p272:64:64-i64:64-f80:128-n8:16:32:64-S128"
target triple = "x86_64-pc-linux-gnu"

@.str = private unnamed_addr constant [3 x i8] c"%d\00", align 1
@.str.1 = private unnamed_addr constant [4 x i8] c"%d\0A\00", align 1

; Function Attrs: noinline nounwind uwtable
define dso_local i32 @main(i32 %0, i8** %1) #0 {
  %3 = alloca i32, align 4
  %4 = alloca i32, align 4
  %5 = alloca i8**, align 8
  %6 = alloca i32, align 4
  %7 = alloca i32, align 4
  %8 = alloca i32, align 4
  %9 = alloca i32, align 4
  %10 = alloca i32, align 4
  %11 = alloca i32, align 4
  store i32 0, i32* %3, align 4
  store i32 %0, i32* %4, align 4
  store i8** %1, i8*** %5, align 8
  store i32 0, i32* %9, align 4
  store i32 0, i32* %10, align 4
  store i32 0, i32* %11, align 4
  %12 = call i32 (i8*, ...) @__isoc99_scanf(i8* getelementptr inbounds ([3 x i8], [3 x i8]* @.str, i64 0, i64 0), i32* %8)
  store i32 1, i32* %6, align 4
  br label %13

13:                                               ; preds = %42, %2
  %14 = load i32, i32* %6, align 4
  %15 = load i32, i32* %8, align 4
  %16 = load i32, i32* %8, align 4
  %17 = mul nsw i32 %15, %16
  %18 = icmp sle i32 %14, %17
  br i1 %18, label %19, label %45

19:                                               ; preds = %13
  %20 = call i32 (i8*, ...) @__isoc99_scanf(i8* getelementptr inbounds ([3 x i8], [3 x i8]* @.str, i64 0, i64 0), i32* %7)
  %21 = load i32, i32* %7, align 4
  %22 = icmp eq i32 %21, 0
  br i1 %22, label %23, label %37

23:                                               ; preds = %19
  %24 = load i32, i32* %9, align 4
  %25 = add nsw i32 %24, 1
  store i32 %25, i32* %9, align 4
  %26 = load i32, i32* %10, align 4
  %27 = add nsw i32 %26, 1
  store i32 %27, i32* %10, align 4
  %28 = load i32, i32* %9, align 4
  %29 = load i32, i32* %11, align 4
  %30 = icmp sgt i32 %28, %29
  br i1 %30, label %31, label %33

31:                                               ; preds = %23
  %32 = load i32, i32* %9, align 4
  br label %35

33:                                               ; preds = %23
  %34 = load i32, i32* %11, align 4
  br label %35

35:                                               ; preds = %33, %31
  %36 = phi i32 [ %32, %31 ], [ %34, %33 ]
  store i32 %36, i32* %11, align 4
  br label %37

37:                                               ; preds = %35, %19
  %38 = load i32, i32* %7, align 4
  %39 = icmp eq i32 %38, 255
  br i1 %39, label %40, label %41

40:                                               ; preds = %37
  store i32 0, i32* %9, align 4
  br label %41

41:                                               ; preds = %40, %37
  br label %42

42:                                               ; preds = %41
  %43 = load i32, i32* %6, align 4
  %44 = add nsw i32 %43, 1
  store i32 %44, i32* %6, align 4
  br label %13

45:                                               ; preds = %13
  %46 = load i32, i32* %10, align 4
  %47 = load i32, i32* %11, align 4
  %48 = mul nsw i32 2, %47
  %49 = sub nsw i32 %46, %48
  %50 = sdiv i32 %49, 2
  store i32 %50, i32* %9, align 4
  %51 = load i32, i32* %9, align 4
  %52 = load i32, i32* %11, align 4
  %53 = sub nsw i32 %52, 2
  %54 = mul nsw i32 %51, %53
  %55 = call i32 (i8*, ...) @printf(i8* getelementptr inbounds ([4 x i8], [4 x i8]* @.str.1, i64 0, i64 0), i32 %54)
  ret i32 0
}

declare dso_local i32 @__isoc99_scanf(i8*, ...) #1

declare dso_local i32 @printf(i8*, ...) #1


!llvm.module.flags = !{!0}
!llvm.ident = !{!1}

!0 = !{i32 1, !"wchar_size", i32 4}
!1 = !{!"clang version 10.0.0-4ubuntu1 "}
