; ModuleID = 'source-C-CXX/14/424.c'
source_filename = "source-C-CXX/14/424.c"
target datalayout = "e-m:e-p270:32:32-p271:32:32-p272:64:64-i64:64-f80:128-n8:16:32:64-S128"
target triple = "x86_64-pc-linux-gnu"

@.str = private unnamed_addr constant [3 x i8] c"%d\00", align 1
@.str.1 = private unnamed_addr constant [4 x i8] c"%d\0A\00", align 1

; Function Attrs: nofree nounwind sspstrong uwtable
define dso_local i32 @main(i32 %0, i8** nocapture readnone %1) local_unnamed_addr #0 {
  %3 = alloca i32, align 4
  %4 = alloca i32, align 4
  %5 = bitcast i32* %3 to i8*
  call void @llvm.lifetime.start.p0i8(i64 4, i8* nonnull %5) #3
  %6 = bitcast i32* %4 to i8*
  call void @llvm.lifetime.start.p0i8(i64 4, i8* nonnull %6) #3
  %7 = call i32 (i8*, ...) @__isoc99_scanf(i8* getelementptr inbounds ([3 x i8], [3 x i8]* @.str, i64 0, i64 0), i32* nonnull %4)
  %8 = load i32, i32* %4, align 4, !tbaa !5
  %9 = mul nsw i32 %8, %8
  %10 = icmp eq i32 %9, 0
  br i1 %10, label %32, label %11

11:                                               ; preds = %2, %11
  %12 = phi i32 [ %25, %11 ], [ 0, %2 ]
  %13 = phi i32 [ %24, %11 ], [ 0, %2 ]
  %14 = phi i32 [ %27, %11 ], [ 0, %2 ]
  %15 = phi i32 [ %28, %11 ], [ 1, %2 ]
  %16 = call i32 (i8*, ...) @__isoc99_scanf(i8* getelementptr inbounds ([3 x i8], [3 x i8]* @.str, i64 0, i64 0), i32* nonnull %3)
  %17 = load i32, i32* %3, align 4, !tbaa !5
  %18 = icmp eq i32 %17, 0
  %19 = add nsw i32 %14, 1
  %20 = icmp slt i32 %14, %12
  %21 = select i1 %20, i32 %12, i32 %19
  %22 = select i1 %18, i32 %19, i32 %14
  %23 = zext i1 %18 to i32
  %24 = add nuw nsw i32 %13, %23
  %25 = select i1 %18, i32 %21, i32 %12
  %26 = icmp eq i32 %17, 255
  %27 = select i1 %26, i32 0, i32 %22
  %28 = add nuw nsw i32 %15, 1
  %29 = load i32, i32* %4, align 4, !tbaa !5
  %30 = mul nsw i32 %29, %29
  %31 = icmp ult i32 %15, %30
  br i1 %31, label %11, label %32, !llvm.loop !9

32:                                               ; preds = %11, %2
  %33 = phi i32 [ 0, %2 ], [ %24, %11 ]
  %34 = phi i32 [ 0, %2 ], [ %25, %11 ]
  %35 = mul i32 %34, -2
  %36 = add i32 %35, %33
  %37 = sdiv i32 %36, 2
  %38 = add nsw i32 %34, -2
  %39 = mul nsw i32 %37, %38
  %40 = call i32 (i8*, ...) @printf(i8* nonnull dereferenceable(1) getelementptr inbounds ([4 x i8], [4 x i8]* @.str.1, i64 0, i64 0), i32 %39)
  call void @llvm.lifetime.end.p0i8(i64 4, i8* nonnull %6) #3
  call void @llvm.lifetime.end.p0i8(i64 4, i8* nonnull %5) #3
  ret i32 0
}

; Function Attrs: argmemonly mustprogress nofree nosync nounwind willreturn
declare void @llvm.lifetime.start.p0i8(i64 immarg, i8* nocapture) #1

; Function Attrs: nofree nounwind
declare noundef i32 @__isoc99_scanf(i8* nocapture noundef readonly, ...) local_unnamed_addr #2

; Function Attrs: nofree nounwind
declare noundef i32 @printf(i8* nocapture noundef readonly, ...) local_unnamed_addr #2

; Function Attrs: argmemonly mustprogress nofree nosync nounwind willreturn
declare void @llvm.lifetime.end.p0i8(i64 immarg, i8* nocapture) #1


!llvm.module.flags = !{!0, !1, !2, !3}
!llvm.ident = !{!4}

!0 = !{i32 1, !"wchar_size", i32 4}
!1 = !{i32 7, !"PIC Level", i32 2}
!2 = !{i32 7, !"PIE Level", i32 2}
!3 = !{i32 7, !"uwtable", i32 1}
!4 = !{!"clang version 13.0.0"}
!5 = !{!6, !6, i64 0}
!6 = !{!"int", !7, i64 0}
!7 = !{!"omnipotent char", !8, i64 0}
!8 = !{!"Simple C/C++ TBAA"}
!9 = distinct !{!9, !10}
!10 = !{!"llvm.loop.mustprogress"}
